; Function Attrs: mustprogress nofree norecurse nosync nounwind memory(readwrite, inaccessiblemem: none) uwtable
define hidden void @_ZN10ciTypeFlow6JsrSet17remove_jsr_recordEi(ptr nocapture noundef nonnull align 8 dereferenceable(32) %0, i32 noundef %1) local_unnamed_addr #2 align 2 {
  %3 = getelementptr inbounds i8, ptr %0, i64 8
  %4 = load i32, ptr %3, align 8
  %5 = icmp sgt i32 %4, 0
  br i1 %5, label %.lr.ph, label %.loopexit

.lr.ph:                                           ; preds = %2
  %6 = getelementptr inbounds i8, ptr %0, i64 16
  %7 = load ptr, ptr %6, align 8
  %wide.trip.count = zext nneg i32 %4 to i64
  br label %8

8:                                                ; preds = %.lr.ph, %22
  %indvars.iv22 = phi i64 [ 1, %.lr.ph ], [ %indvars.iv.next23, %22 ]
  %indvars.iv = phi i64 [ 0, %.lr.ph ], [ %indvars.iv.next, %22 ]
  %9 = getelementptr inbounds ptr, ptr %7, i64 %indvars.iv
  %10 = load ptr, ptr %9, align 8
  %11 = getelementptr inbounds i8, ptr %10, i64 4
  %12 = load i32, ptr %11, align 4
  %13 = icmp eq i32 %12, %1
  br i1 %13, label %.preheader, label %22

.preheader:                                       ; preds = %8
  %14 = trunc nuw nsw i64 %indvars.iv to i32
  %.016 = add nuw nsw i32 %14, 1
  %15 = icmp slt i32 %.016, %4
  %16 = add nsw i32 %4, -1
  br i1 %15, label %.lr.ph19, label %._crit_edge

.lr.ph19:                                         ; preds = %.preheader
  %wide.trip.count33 = zext i32 %16 to i64
  br label %17

17:                                               ; preds = %.lr.ph19, %17
  %indvars.iv28 = phi i64 [ %indvars.iv, %.lr.ph19 ], [ %indvars.iv.next29, %17 ]
  %indvars.iv25 = phi i64 [ %indvars.iv22, %.lr.ph19 ], [ %indvars.iv.next26, %17 ]
  %18 = load ptr, ptr %6, align 8
  %19 = getelementptr inbounds ptr, ptr %18, i64 %indvars.iv25
  %20 = load ptr, ptr %19, align 8
  %21 = getelementptr inbounds ptr, ptr %18, i64 %indvars.iv28
  store ptr %20, ptr %21, align 8
  %indvars.iv.next26 = add nuw nsw i64 %indvars.iv25, 1
  %indvars.iv.next29 = add nuw nsw i64 %indvars.iv28, 1
  %exitcond34.not = icmp eq i64 %indvars.iv.next29, %wide.trip.count33
  br i1 %exitcond34.not, label %._crit_edge, label %17, !llvm.loop !11

._crit_edge:                                      ; preds = %17, %.preheader
  store i32 %16, ptr %3, align 8
  br label %.loopexit

22:                                               ; preds = %8
  %indvars.iv.next = add nuw nsw i64 %indvars.iv, 1
  %exitcond.not = icmp eq i64 %indvars.iv.next, %wide.trip.count
  %indvars.iv.next23 = add nuw nsw i64 %indvars.iv22, 1
  br i1 %exitcond.not, label %.loopexit, label %8, !llvm.loop !12

.loopexit:                                        ; preds = %22, %2, %._crit_edge
  ret void
}